target datalayout = "e-m:e-p270:32:32-p271:32:32-p272:64:64-i64:64-i128:128-f80:128-n8:16:32:64-S128"
target triple = "x86_64-pc-linux-gnu"

%struct.ssl_connection_st = type { %struct.ssl_st, ptr, i32, ptr, ptr, ptr, i32, ptr, i32, i32, i32, i32, %struct.OSSL_TIME, %struct.OSSL_TIME, %struct.ossl_statem_st, i32, ptr, ptr, i64, i64, i64, %struct.ossl_quic_tls_callbacks_st, ptr, ptr, %struct.anon, ptr, ptr, ptr, i32, ptr, %struct.ssl_dane_st, ptr, ptr, ptr, ptr, i32, [64 x i8], [64 x i8], [64 x i8], [64 x i8], [64 x i8], [64 x i8], [64 x i8], [64 x i8], [64 x i8], [64 x i8], [64 x i8], [64 x i8], ptr, [64 x i8], i64, i32, i64, [32 x i8], ptr, ptr, ptr, i64, ptr, [32 x i8], i64, i32, ptr, ptr, i32, i32, ptr, ptr, ptr, ptr, ptr, i64, ptr, ptr, i64, i32, i32, i32, i64, i32, i32, i64, i64, i64, %struct.anon.1, ptr, i32, ptr, ptr, ptr, i32, ptr, ptr, ptr, i32, i32, i32, i32, ptr, i64, i32, ptr, %struct.srp_ctx_st, ptr, %struct.record_layer_st, ptr, ptr, ptr, ptr, i64, i32, i32, i32, i64, i64, i64, ptr, ptr, ptr, ptr, ptr, i64, ptr, i64, ptr, i64 }
%struct.ssl_st = type { i32, ptr, ptr, ptr, %struct.CRYPTO_REF_COUNT, ptr, %struct.crypto_ex_data_st }
%struct.CRYPTO_REF_COUNT = type { i32 }
%struct.crypto_ex_data_st = type { ptr, ptr }
%struct.OSSL_TIME = type { i64 }
%struct.ossl_statem_st = type { i32, i32, i32, i32, i32, i32, i32, i32, i32, i32, i32, i32, i32, ptr, ptr, ptr, i8 }
%struct.ossl_quic_tls_callbacks_st = type { ptr, ptr, ptr, ptr, ptr, ptr }
%struct.anon = type { i64, [32 x i8], [32 x i8], ptr, ptr, i32, i32, i32, i32, [2 x i8], i32, i32, i32, i32, %struct.anon.0, [64 x i8], i64, [64 x i8], i64, i32, i32, ptr, i64, ptr, i64, i32, i8, i8, i16, ptr, i16 }
%struct.anon.0 = type { [128 x i8], i64, [128 x i8], i64, i64, i32, ptr, ptr, [4 x ptr], [4 x i16], i64, i32, ptr, i64, ptr, i64, ptr, ptr, ptr, i32, i64, ptr, i32, ptr, i64, ptr, i64, ptr, i64, ptr, ptr, ptr, ptr, i64, i64, ptr, ptr, i32, i32, i32, i32 }
%struct.ssl_dane_st = type { ptr, ptr, ptr, ptr, ptr, i32, i32, i32, i64 }
%struct.anon.1 = type { [29 x i8], ptr, ptr, ptr, i32, ptr, i16, i32, %struct.anon.2, i32, i32, i64, ptr, i64, ptr, i64, ptr, i64, ptr, i64, ptr, i64, ptr, ptr, ptr, ptr, ptr, ptr, ptr, i64, ptr, i64, i32, i32, i32, i32, ptr, i64, i32, i8, i32, [4 x i32], i32, i8, i8, i8, i8 }
%struct.anon.2 = type { ptr, ptr, ptr, i64 }
%struct.srp_ctx_st = type { ptr, ptr, ptr, ptr, ptr, ptr, ptr, ptr, ptr, ptr, ptr, ptr, ptr, ptr, i32, i64 }
%struct.record_layer_st = type { ptr, ptr, ptr, ptr, ptr, ptr, ptr, ptr, i64, i32, i64, [4 x i8], i64, i64, i8, ptr, i32, ptr, ptr, ptr, i64, i64, i64, i64, [32 x %struct.tls_record_st] }
%struct.tls_record_st = type { ptr, i32, i8, ptr, ptr, i64, i64, i16, [8 x i8] }
%struct.ssl_method_st = type { i32, i32, i64, ptr, ptr, ptr, ptr, ptr, ptr, ptr, ptr, ptr, ptr, ptr, ptr, ptr, ptr, ptr, ptr, ptr, ptr, ptr, ptr, ptr, ptr, ptr, ptr, ptr, ptr, ptr, ptr, ptr }
%struct.ssl3_enc_method = type { ptr, ptr, ptr, ptr, ptr, i64, ptr, i64, ptr, ptr, i32, ptr, ptr, ptr }

; Function Attrs: nounwind uwtable
define i32 @ssl3_send_alert(ptr noundef %0, i32 noundef %1, i32 noundef %2) #0 {
  %4 = alloca i32, align 4
  %5 = alloca ptr, align 8
  %6 = alloca i32, align 4
  %7 = alloca i32, align 4
  %8 = alloca ptr, align 8
  %9 = alloca i32, align 4
  store ptr %0, ptr %5, align 8, !tbaa !3
  store i32 %1, ptr %6, align 4, !tbaa !71
  store i32 %2, ptr %7, align 4, !tbaa !71
  call void @llvm.lifetime.start.p0(i64 8, ptr %8) #3
  %10 = load ptr, ptr %5, align 8, !tbaa !3
  %11 = getelementptr inbounds nuw %struct.ssl_connection_st, ptr %10, i32 0, i32 0
  store ptr %11, ptr %8, align 8, !tbaa !8
  %12 = load ptr, ptr %5, align 8, !tbaa !3
  %13 = getelementptr inbounds nuw %struct.ssl_connection_st, ptr %12, i32 0, i32 0
  %14 = getelementptr inbounds nuw %struct.ssl_st, ptr %13, i32 0, i32 3
  %15 = load ptr, ptr %14, align 8, !tbaa !86
  %16 = getelementptr inbounds nuw %struct.ssl_method_st, ptr %15, i32 0, i32 28
  %17 = load ptr, ptr %16, align 8, !tbaa !80
  %18 = getelementptr inbounds nuw %struct.ssl3_enc_method, ptr %17, i32 0, i32 10
  %19 = load i32, ptr %18, align 8, !tbaa !87
  %20 = and i32 %19, 8
  %21 = icmp ne i32 %20, 0
  br i1 %21, label %38, label %22

22:                                               ; preds = %3
  %23 = load ptr, ptr %5, align 8, !tbaa !3
  %24 = getelementptr inbounds nuw %struct.ssl_connection_st, ptr %23, i32 0, i32 0
  %25 = getelementptr inbounds nuw %struct.ssl_st, ptr %24, i32 0, i32 3
  %26 = load ptr, ptr %25, align 8, !tbaa !86
  %27 = getelementptr inbounds nuw %struct.ssl_method_st, ptr %26, i32 0, i32 0
  %28 = load i32, ptr %27, align 8, !tbaa !88
  %29 = icmp sge i32 %28, 772
  br i1 %29, label %30, label %38

30:                                               ; preds = %22
  %31 = load ptr, ptr %5, align 8, !tbaa !3
  %32 = getelementptr inbounds nuw %struct.ssl_connection_st, ptr %31, i32 0, i32 0
  %33 = getelementptr inbounds nuw %struct.ssl_st, ptr %32, i32 0, i32 3
  %34 = load ptr, ptr %33, align 8, !tbaa !86
  %35 = getelementptr inbounds nuw %struct.ssl_method_st, ptr %34, i32 0, i32 0
  %36 = load i32, ptr %35, align 8, !tbaa !88
  %37 = icmp ne i32 %36, 65536
  br i1 %37, label %63, label %38

38:                                               ; preds = %30, %22, %3
  %39 = load ptr, ptr %5, align 8, !tbaa !3
  %40 = getelementptr inbounds nuw %struct.ssl_connection_st, ptr %39, i32 0, i32 15
  %41 = load i32, ptr %40, align 8, !tbaa !89
  %42 = icmp eq i32 %41, 2
  br i1 %42, label %63, label %43

43:                                               ; preds = %38
  %44 = load ptr, ptr %5, align 8, !tbaa !3
  %45 = getelementptr inbounds nuw %struct.ssl_connection_st, ptr %44, i32 0, i32 15
  %46 = load i32, ptr %45, align 8, !tbaa !89
  %47 = icmp eq i32 %46, 1
  br i1 %47, label %63, label %48

48:                                               ; preds = %43
  %49 = load ptr, ptr %5, align 8, !tbaa !3
  %50 = getelementptr inbounds nuw %struct.ssl_connection_st, ptr %49, i32 0, i32 15
  %51 = load i32, ptr %50, align 8, !tbaa !89
  %52 = icmp eq i32 %51, 4
  br i1 %52, label %63, label %53

53:                                               ; preds = %48
  %54 = load ptr, ptr %5, align 8, !tbaa !3
  %55 = getelementptr inbounds nuw %struct.ssl_connection_st, ptr %54, i32 0, i32 15
  %56 = load i32, ptr %55, align 8, !tbaa !89
  %57 = icmp eq i32 %56, 3
  br i1 %57, label %63, label %58

58:                                               ; preds = %53
  %59 = load ptr, ptr %5, align 8, !tbaa !3
  %60 = getelementptr inbounds nuw %struct.ssl_connection_st, ptr %59, i32 0, i32 51
  %61 = load i32, ptr %60, align 8, !tbaa !90
  %62 = icmp eq i32 %61, 1
  br i1 %62, label %63, label %66

63:                                               ; preds = %58, %53, %48, %43, %38, %30
  %64 = load i32, ptr %7, align 4, !tbaa !71
  %65 = call i32 @tls13_alert_code(i32 noundef %64)
  store i32 %65, ptr %7, align 4, !tbaa !71
  br label %76

66:                                               ; preds = %58
  %67 = load ptr, ptr %8, align 8, !tbaa !8
  %68 = getelementptr inbounds nuw %struct.ssl_st, ptr %67, i32 0, i32 3
  %69 = load ptr, ptr %68, align 8, !tbaa !79
  %70 = getelementptr inbounds nuw %struct.ssl_method_st, ptr %69, i32 0, i32 28
  %71 = load ptr, ptr %70, align 8, !tbaa !80
  %72 = getelementptr inbounds nuw %struct.ssl3_enc_method, ptr %71, i32 0, i32 8
  %73 = load ptr, ptr %72, align 8, !tbaa !91
  %74 = load i32, ptr %7, align 4, !tbaa !71
  %75 = call i32 %73(i32 noundef %74)
  store i32 %75, ptr %7, align 4, !tbaa !71
  br label %76

76:                                               ; preds = %66, %63
  %77 = load ptr, ptr %5, align 8, !tbaa !3
  %78 = getelementptr inbounds nuw %struct.ssl_connection_st, ptr %77, i32 0, i32 2
  %79 = load i32, ptr %78, align 8, !tbaa !92
  %80 = icmp eq i32 %79, 768
  br i1 %80, label %81, label %85

81:                                               ; preds = %76
  %82 = load i32, ptr %7, align 4, !tbaa !71
  %83 = icmp eq i32 %82, 70
  br i1 %83, label %84, label %85

84:                                               ; preds = %81
  store i32 40, ptr %7, align 4, !tbaa !71
  br label %85

85:                                               ; preds = %84, %81, %76
  %86 = load i32, ptr %7, align 4, !tbaa !71
  %87 = icmp slt i32 %86, 0
  br i1 %87, label %88, label %89

88:                                               ; preds = %85
  store i32 -1, ptr %4, align 4
  store i32 1, ptr %9, align 4
  br label %144

89:                                               ; preds = %85
  %90 = load ptr, ptr %5, align 8, !tbaa !3
  %91 = getelementptr inbounds nuw %struct.ssl_connection_st, ptr %90, i32 0, i32 11
  %92 = load i32, ptr %91, align 4, !tbaa !93
  %93 = and i32 %92, 1
  %94 = icmp ne i32 %93, 0
  br i1 %94, label %95, label %99

95:                                               ; preds = %89
  %96 = load i32, ptr %7, align 4, !tbaa !71
  %97 = icmp ne i32 %96, 0
  br i1 %97, label %98, label %99

98:                                               ; preds = %95
  store i32 -1, ptr %4, align 4
  store i32 1, ptr %9, align 4
  br label %144

99:                                               ; preds = %95, %89
  %100 = load i32, ptr %6, align 4, !tbaa !71
  %101 = icmp eq i32 %100, 2
  br i1 %101, label %102, label %115

102:                                              ; preds = %99
  %103 = load ptr, ptr %5, align 8, !tbaa !3
  %104 = getelementptr inbounds nuw %struct.ssl_connection_st, ptr %103, i32 0, i32 54
  %105 = load ptr, ptr %104, align 8, !tbaa !73
  %106 = icmp ne ptr %105, null
  br i1 %106, label %107, label %115

107:                                              ; preds = %102
  %108 = load ptr, ptr %5, align 8, !tbaa !3
  %109 = getelementptr inbounds nuw %struct.ssl_connection_st, ptr %108, i32 0, i32 91
  %110 = load ptr, ptr %109, align 8, !tbaa !94
  %111 = load ptr, ptr %5, align 8, !tbaa !3
  %112 = getelementptr inbounds nuw %struct.ssl_connection_st, ptr %111, i32 0, i32 54
  %113 = load ptr, ptr %112, align 8, !tbaa !73
  %114 = call i32 @SSL_CTX_remove_session(ptr noundef %110, ptr noundef %113)
  br label %115

115:                                              ; preds = %107, %102, %99
  %116 = load ptr, ptr %5, align 8, !tbaa !3
  %117 = getelementptr inbounds nuw %struct.ssl_connection_st, ptr %116, i32 0, i32 24
  %118 = getelementptr inbounds nuw %struct.anon, ptr %117, i32 0, i32 8
  store i32 1, ptr %118, align 4, !tbaa !95
  %119 = load i32, ptr %6, align 4, !tbaa !71
  %120 = trunc i32 %119 to i8
  %121 = load ptr, ptr %5, align 8, !tbaa !3
  %122 = getelementptr inbounds nuw %struct.ssl_connection_st, ptr %121, i32 0, i32 24
  %123 = getelementptr inbounds nuw %struct.anon, ptr %122, i32 0, i32 9
  %124 = getelementptr inbounds [2 x i8], ptr %123, i64 0, i64 0
  store i8 %120, ptr %124, align 8, !tbaa !96
  %125 = load i32, ptr %7, align 4, !tbaa !71
  %126 = trunc i32 %125 to i8
  %127 = load ptr, ptr %5, align 8, !tbaa !3
  %128 = getelementptr inbounds nuw %struct.ssl_connection_st, ptr %127, i32 0, i32 24
  %129 = getelementptr inbounds nuw %struct.anon, ptr %128, i32 0, i32 9
  %130 = getelementptr inbounds [2 x i8], ptr %129, i64 0, i64 1
  store i8 %126, ptr %130, align 1, !tbaa !96
  %131 = load ptr, ptr %5, align 8, !tbaa !3
  %132 = getelementptr inbounds nuw %struct.ssl_connection_st, ptr %131, i32 0, i32 104
  %133 = call i32 @RECORD_LAYER_write_pending(ptr noundef %132)
  %134 = icmp ne i32 %133, 0
  br i1 %134, label %143, label %135

135:                                              ; preds = %115
  %136 = load ptr, ptr %8, align 8, !tbaa !8
  %137 = getelementptr inbounds nuw %struct.ssl_st, ptr %136, i32 0, i32 3
  %138 = load ptr, ptr %137, align 8, !tbaa !79
  %139 = getelementptr inbounds nuw %struct.ssl_method_st, ptr %138, i32 0, i32 19
  %140 = load ptr, ptr %139, align 8, !tbaa !97
  %141 = load ptr, ptr %8, align 8, !tbaa !8
  %142 = call i32 %140(ptr noundef %141)
  store i32 %142, ptr %4, align 4
  store i32 1, ptr %9, align 4
  br label %144

143:                                              ; preds = %115
  store i32 -1, ptr %4, align 4
  store i32 1, ptr %9, align 4
  br label %144

144:                                              ; preds = %143, %135, %98, %88
  call void @llvm.lifetime.end.p0(i64 8, ptr %8) #3
  %145 = load i32, ptr %4, align 4
  ret i32 %145
}