; Function Attrs: nounwind uwtable
define i32 @ssl3_send_alert(ptr noundef %0, i32 noundef %1, i32 noundef %2) local_unnamed_addr #0 {
  %4 = getelementptr inbounds nuw i8, ptr %0, i64 24
  %5 = load ptr, ptr %4, align 8, !tbaa !83
  %6 = getelementptr inbounds nuw i8, ptr %5, i64 216
  %7 = load ptr, ptr %6, align 8, !tbaa !77
  %8 = getelementptr inbounds nuw i8, ptr %7, i64 80
  %9 = load i32, ptr %8, align 8, !tbaa !84
  %10 = and i32 %9, 8
  %.not = icmp eq i32 %10, 0
  br i1 %.not, label %11, label %14

11:                                               ; preds = %3
  %12 = load i32, ptr %5, align 8, !tbaa !85
  %13 = icmp slt i32 %12, 772
  %.not36 = icmp eq i32 %12, 65536
  %or.cond39 = or i1 %13, %.not36
  br i1 %or.cond39, label %14, label %21

14:                                               ; preds = %11, %3
  %15 = getelementptr inbounds nuw i8, ptr %0, i64 240
  %16 = load i32, ptr %15, align 8, !tbaa !86
  %.off = add i32 %16, -1
  %switch = icmp ult i32 %.off, 4
  br i1 %switch, label %21, label %17

17:                                               ; preds = %14
  %18 = getelementptr inbounds nuw i8, ptr %0, i64 2256
  %19 = load i32, ptr %18, align 8, !tbaa !87
  %20 = icmp eq i32 %19, 1
  br i1 %20, label %21, label %23

21:                                               ; preds = %14, %11, %17
  %22 = tail call i32 @tls13_alert_code(i32 noundef %2) #3
  br label %27

23:                                               ; preds = %17
  %24 = getelementptr inbounds nuw i8, ptr %7, i64 64
  %25 = load ptr, ptr %24, align 8, !tbaa !88
  %26 = tail call i32 %25(i32 noundef %2) #3
  br label %27

27:                                               ; preds = %23, %21
  %.032 = phi i32 [ %22, %21 ], [ %26, %23 ]
  %28 = getelementptr inbounds nuw i8, ptr %0, i64 72
  %29 = load i32, ptr %28, align 8, !tbaa !89
  %30 = icmp eq i32 %29, 768
  %31 = icmp eq i32 %.032, 70
  %or.cond = select i1 %30, i1 %31, i1 false
  %spec.store.select = select i1 %or.cond, i32 40, i32 %.032
  %32 = icmp slt i32 %spec.store.select, 0
  br i1 %32, label %61, label %33

33:                                               ; preds = %27
  %34 = getelementptr inbounds nuw i8, ptr %0, i64 132
  %35 = load i32, ptr %34, align 4, !tbaa !90
  %36 = and i32 %35, 1
  %37 = icmp ne i32 %36, 0
  %38 = icmp ne i32 %spec.store.select, 0
  %or.cond3 = and i1 %38, %37
  br i1 %or.cond3, label %61, label %39

39:                                               ; preds = %33
  %40 = icmp eq i32 %1, 2
  br i1 %40, label %41, label %48

41:                                               ; preds = %39
  %42 = getelementptr inbounds nuw i8, ptr %0, i64 2304
  %43 = load ptr, ptr %42, align 8, !tbaa !70
  %.not37 = icmp eq ptr %43, null
  br i1 %.not37, label %48, label %44

44:                                               ; preds = %41
  %45 = getelementptr inbounds nuw i8, ptr %0, i64 2952
  %46 = load ptr, ptr %45, align 8, !tbaa !91
  %47 = tail call i32 @SSL_CTX_remove_session(ptr noundef %46, ptr noundef nonnull %43) #3
  br label %48

48:                                               ; preds = %44, %41, %39
  %49 = getelementptr inbounds nuw i8, ptr %0, i64 452
  store i32 1, ptr %49, align 4, !tbaa !92
  %50 = trunc i32 %1 to i8
  %51 = getelementptr inbounds nuw i8, ptr %0, i64 456
  store i8 %50, ptr %51, align 8, !tbaa !93
  %52 = trunc i32 %spec.store.select to i8
  %53 = getelementptr inbounds nuw i8, ptr %0, i64 457
  store i8 %52, ptr %53, align 1, !tbaa !93
  %54 = getelementptr inbounds nuw i8, ptr %0, i64 3160
  %55 = tail call i32 @RECORD_LAYER_write_pending(ptr noundef nonnull %54) #3
  %.not38 = icmp eq i32 %55, 0
  br i1 %.not38, label %56, label %61

56:                                               ; preds = %48
  %57 = load ptr, ptr %4, align 8, !tbaa !76
  %58 = getelementptr inbounds nuw i8, ptr %57, i64 144
  %59 = load ptr, ptr %58, align 8, !tbaa !94
  %60 = tail call i32 %59(ptr noundef nonnull %0) #3
  br label %61

61:                                               ; preds = %48, %33, %27, %56
  %.0 = phi i32 [ %60, %56 ], [ -1, %27 ], [ -1, %33 ], [ -1, %48 ]
  ret i32 %.0
}